target datalayout = "e-m:e-p270:32:32-p271:32:32-p272:64:64-i64:64-i128:128-f80:128-n8:16:32:64-S128"
target triple = "x86_64-pc-linux-gnu"

%struct.expert_field = type { i32, i32 }

@hf_ip_opt_id_number = internal global i32 0, align 4
@hf_ip_opt_ohc = internal global i32 0, align 4
@hf_ip_opt_rhc = internal global i32 0, align 4
@hf_ip_opt_originator = internal global i32 0, align 4
@ett_ip_option_tr = internal global i32 0, align 4
@ei_ip_opt_deprecated = internal global %struct.expert_field zeroinitializer, align 4
@proto_ip_option_traceroute = internal global i32 0, align 4

; Function Attrs: null_pointer_is_valid sspstrong uwtable
define internal i32 @dissect_ipopt_tr(ptr noundef %0, ptr noundef %1, ptr noundef %2, ptr noundef %3) #1 {
  %5 = alloca ptr, align 8
  %6 = alloca ptr, align 8
  %7 = alloca ptr, align 8
  %8 = alloca ptr, align 8
  %9 = alloca ptr, align 8
  %10 = alloca ptr, align 8
  %11 = alloca i32, align 4
  store ptr %0, ptr %5, align 8
  store ptr %1, ptr %6, align 8
  store ptr %2, ptr %7, align 8
  store ptr %3, ptr %8, align 8
  call void @llvm.lifetime.start.p0(i64 8, ptr %9) #12
  call void @llvm.lifetime.start.p0(i64 8, ptr %10) #12
  call void @llvm.lifetime.start.p0(i64 4, ptr %11) #12
  store i32 2, ptr %11, align 4
  %12 = load ptr, ptr %7, align 8
  %13 = load ptr, ptr %6, align 8
  %14 = load ptr, ptr %5, align 8
  %15 = load i32, ptr @proto_ip_option_traceroute, align 4
  %16 = load i32, ptr @ett_ip_option_tr, align 4
  %17 = load ptr, ptr %5, align 8
  %18 = call i32 @tvb_reported_length(ptr noundef %17)
  %19 = call ptr @ip_fixed_option_header(ptr noundef %12, ptr noundef %13, ptr noundef %14, i32 noundef %15, i32 noundef %16, ptr noundef %10, i32 noundef 12, i32 noundef %18)
  store ptr %19, ptr %9, align 8
  %20 = load ptr, ptr %6, align 8
  %21 = load ptr, ptr %10, align 8
  %22 = call ptr @expert_add_info(ptr noundef %20, ptr noundef %21, ptr noundef @ei_ip_opt_deprecated)
  %23 = load ptr, ptr %9, align 8
  %24 = load i32, ptr @hf_ip_opt_id_number, align 4
  %25 = load ptr, ptr %5, align 8
  %26 = load i32, ptr %11, align 4
  %27 = call ptr @proto_tree_add_item(ptr noundef %23, i32 noundef %24, ptr noundef %25, i32 noundef %26, i32 noundef 2, i32 noundef 0)
  %28 = load ptr, ptr %9, align 8
  %29 = load i32, ptr @hf_ip_opt_ohc, align 4
  %30 = load ptr, ptr %5, align 8
  %31 = load i32, ptr %11, align 4
  %32 = add i32 %31, 2
  %33 = call ptr @proto_tree_add_item(ptr noundef %28, i32 noundef %29, ptr noundef %30, i32 noundef %32, i32 noundef 2, i32 noundef 0)
  %34 = load ptr, ptr %9, align 8
  %35 = load i32, ptr @hf_ip_opt_rhc, align 4
  %36 = load ptr, ptr %5, align 8
  %37 = load i32, ptr %11, align 4
  %38 = add i32 %37, 4
  %39 = call ptr @proto_tree_add_item(ptr noundef %34, i32 noundef %35, ptr noundef %36, i32 noundef %38, i32 noundef 2, i32 noundef 0)
  %40 = load ptr, ptr %9, align 8
  %41 = load i32, ptr @hf_ip_opt_originator, align 4
  %42 = load ptr, ptr %5, align 8
  %43 = load i32, ptr %11, align 4
  %44 = add i32 %43, 6
  %45 = call ptr @proto_tree_add_item(ptr noundef %40, i32 noundef %41, ptr noundef %42, i32 noundef %44, i32 noundef 4, i32 noundef 0)
  %46 = load ptr, ptr %5, align 8
  %47 = call i32 @tvb_captured_length(ptr noundef %46)
  call void @llvm.lifetime.end.p0(i64 4, ptr %11) #12
  call void @llvm.lifetime.end.p0(i64 8, ptr %10) #12
  call void @llvm.lifetime.end.p0(i64 8, ptr %9) #12
  ret i32 %47
}