; Function Attrs: null_pointer_is_valid sspstrong uwtable
define internal i32 @dissect_ipopt_tr(ptr noundef %0, ptr noundef %1, ptr noundef %2, ptr readnone captures(none) %3) #1 {
  %5 = alloca ptr, align 8
  call void @llvm.lifetime.start.p0(i64 8, ptr nonnull %5) #9
  %6 = load i32, ptr @proto_ip_option_traceroute, align 4
  %7 = load i32, ptr @ett_ip_option_tr, align 4
  %8 = tail call i32 @tvb_reported_length(ptr noundef %0)
  %9 = call fastcc ptr @ip_fixed_option_header(ptr noundef %2, ptr noundef %1, ptr noundef %0, i32 noundef %6, i32 noundef %7, ptr noundef nonnull %5, i32 noundef 12, i32 noundef %8)
  %10 = load ptr, ptr %5, align 8
  %11 = tail call ptr @expert_add_info(ptr noundef %1, ptr noundef %10, ptr noundef nonnull @ei_ip_opt_deprecated)
  %12 = load i32, ptr @hf_ip_opt_id_number, align 4
  %13 = tail call ptr @proto_tree_add_item(ptr noundef %9, i32 noundef %12, ptr noundef %0, i32 noundef 2, i32 noundef 2, i32 noundef 0)
  %14 = load i32, ptr @hf_ip_opt_ohc, align 4
  %15 = tail call ptr @proto_tree_add_item(ptr noundef %9, i32 noundef %14, ptr noundef %0, i32 noundef 4, i32 noundef 2, i32 noundef 0)
  %16 = load i32, ptr @hf_ip_opt_rhc, align 4
  %17 = tail call ptr @proto_tree_add_item(ptr noundef %9, i32 noundef %16, ptr noundef %0, i32 noundef 6, i32 noundef 2, i32 noundef 0)
  %18 = load i32, ptr @hf_ip_opt_originator, align 4
  %19 = tail call ptr @proto_tree_add_item(ptr noundef %9, i32 noundef %18, ptr noundef %0, i32 noundef 8, i32 noundef 4, i32 noundef 0)
  %20 = tail call i32 @tvb_captured_length(ptr noundef %0)
  call void @llvm.lifetime.end.p0(i64 8, ptr nonnull %5) #9
  ret i32 %20
}